; Function Attrs: mustprogress nofree norecurse nosync nounwind willreturn memory(argmem: read) uwtable
define noundef i32 @_ZN6LibRaw10flip_indexEii(ptr noundef nonnull readonly align 8 captures(none) dereferenceable(767680) %0, i32 noundef %1, i32 noundef %2) local_unnamed_addr #0 align 2 {
  %4 = getelementptr inbounds nuw i8, ptr %0, i64 48
  %5 = load i32, ptr %4, align 8, !tbaa !6
  %6 = and i32 %5, 4
  %.not = icmp eq i32 %6, 0
  %spec.select = select i1 %.not, i32 %1, i32 %2
  %spec.select14 = select i1 %.not, i32 %2, i32 %1
  %7 = and i32 %5, 2
  %.not12 = icmp eq i32 %7, 0
  %8 = getelementptr inbounds nuw i8, ptr %0, i64 28
  %9 = load i16, ptr %8, align 4
  %10 = zext i16 %9 to i32
  %11 = xor i32 %spec.select, -1
  %12 = add i32 %11, %10
  %.111 = select i1 %.not12, i32 %spec.select, i32 %12
  %13 = and i32 %5, 1
  %.not13 = icmp eq i32 %13, 0
  %14 = getelementptr inbounds nuw i8, ptr %0, i64 30
  %15 = load i16, ptr %14, align 2
  %16 = zext i16 %15 to i32
  %17 = xor i32 %spec.select14, -1
  %18 = add i32 %17, %16
  %.1 = select i1 %.not13, i32 %spec.select14, i32 %18
  %19 = mul nsw i32 %.111, %16
  %20 = add nsw i32 %19, %.1
  ret i32 %20
}